; Function Attrs: mustprogress uwtable
define hidden void @_ZN6Assimp13ColladaLoader19StoreSceneMaterialsEP7aiScene(ptr noundef nonnull align 8 captures(none) dereferenceable(380) %0, ptr noundef captures(none) initializes((32, 36)) %1) local_unnamed_addr #5 align 2 personality ptr @__gxx_personality_v0 {
  %3 = getelementptr inbounds nuw i8, ptr %0, i64 248
  %4 = getelementptr inbounds nuw i8, ptr %0, i64 256
  %5 = load ptr, ptr %4, align 8
  %6 = load ptr, ptr %3, align 8
  %7 = ptrtoint ptr %5 to i64
  %8 = ptrtoint ptr %6 to i64
  %9 = sub i64 %7, %8
  %10 = lshr exact i64 %9, 4
  %11 = trunc i64 %10 to i32
  %12 = getelementptr inbounds nuw i8, ptr %1, i64 32
  store i32 %11, ptr %12, align 8
  %13 = load ptr, ptr %3, align 8
  %14 = load ptr, ptr %4, align 8
  %15 = icmp eq ptr %13, %14
  br i1 %15, label %_ZNSt6vectorISt4pairIPN6Assimp7Collada6EffectEP10aiMaterialESaIS7_EE5clearEv.exit, label %16

16:                                               ; preds = %2
  %17 = ptrtoint ptr %14 to i64
  %18 = ptrtoint ptr %13 to i64
  %19 = sub i64 %17, %18
  %20 = tail call i64 @llvm.smax.i64(i64 %19, i64 -1)
  %21 = ashr i64 %20, 1
  %22 = tail call noalias noundef nonnull ptr @_Znam(i64 noundef %21) #36
  %23 = getelementptr inbounds nuw i8, ptr %1, i64 40
  store ptr %22, ptr %23, align 8
  %24 = load ptr, ptr %4, align 8
  %25 = load ptr, ptr %3, align 8
  %.not = icmp eq ptr %24, %25
  br i1 %.not, label %._crit_edge, label %.lr.ph

._crit_edge:                                      ; preds = %.lr.ph, %16
  %.lcssa8 = phi ptr [ %24, %16 ], [ %35, %.lr.ph ]
  %.lcssa = phi ptr [ %25, %16 ], [ %36, %.lr.ph ]
  %.not.i.i = icmp eq ptr %.lcssa8, %.lcssa
  br i1 %.not.i.i, label %_ZNSt6vectorISt4pairIPN6Assimp7Collada6EffectEP10aiMaterialESaIS7_EE5clearEv.exit, label %26

26:                                               ; preds = %._crit_edge
  store ptr %.lcssa, ptr %4, align 8
  br label %_ZNSt6vectorISt4pairIPN6Assimp7Collada6EffectEP10aiMaterialESaIS7_EE5clearEv.exit

.lr.ph:                                           ; preds = %16, %.lr.ph
  %27 = phi ptr [ %36, %.lr.ph ], [ %25, %16 ]
  %28 = phi i64 [ %34, %.lr.ph ], [ 0, %16 ]
  %.09 = phi i32 [ %33, %.lr.ph ], [ 0, %16 ]
  %29 = getelementptr inbounds nuw %"struct.std::pair.235", ptr %27, i64 %28, i32 1
  %30 = load ptr, ptr %29, align 8
  %31 = load ptr, ptr %23, align 8
  %32 = getelementptr inbounds nuw ptr, ptr %31, i64 %28
  store ptr %30, ptr %32, align 8
  %33 = add i32 %.09, 1
  %34 = zext i32 %33 to i64
  %35 = load ptr, ptr %4, align 8
  %36 = load ptr, ptr %3, align 8
  %37 = ptrtoint ptr %35 to i64
  %38 = ptrtoint ptr %36 to i64
  %39 = sub i64 %37, %38
  %40 = ashr exact i64 %39, 4
  %41 = icmp ugt i64 %40, %34
  br i1 %41, label %.lr.ph, label %._crit_edge, !llvm.loop !12

_ZNSt6vectorISt4pairIPN6Assimp7Collada6EffectEP10aiMaterialESaIS7_EE5clearEv.exit: ; preds = %26, %._crit_edge, %2
  ret void
}